; Function Attrs: nounwind uwtable
define void @Java_sun_nio_ch_UnixFileDispatcherImpl_closeIntFD(ptr noundef %0, ptr nocapture noundef readnone %1, i32 noundef %2) local_unnamed_addr #0 {
  %.not.i = icmp eq i32 %2, -1
  br i1 %.not.i, label %closeFileDescriptor.exit, label %4

4:                                                ; preds = %3
  %5 = tail call i32 @close(i32 noundef %2) #6
  %6 = icmp slt i32 %5, 0
  br i1 %6, label %7, label %closeFileDescriptor.exit

7:                                                ; preds = %4
  tail call void @JNU_ThrowIOExceptionWithLastError(ptr noundef %0, ptr noundef nonnull @.str.10) #6
  br label %closeFileDescriptor.exit

closeFileDescriptor.exit:                         ; preds = %3, %4, %7
  ret void
}